target datalayout = "e-m:e-p270:32:32-p271:32:32-p272:64:64-i64:64-i128:128-f80:128-n8:16:32:64-S128"
target triple = "x86_64-pc-linux-gnu"

%class.Register = type { i32 }
%class.XMMRegister = type { i32 }
%class.VMRegImpl = type { i8 }
%class.Address = type { %class.Register, %class.Register, %class.XMMRegister, i32, i32, i8, [3 x i8], %class.RelocationHolder }
%class.RelocationHolder = type { [40 x i8] }
%class.VMRegPair = type { ptr, ptr }
%class.Relocation = type <{ ptr, ptr, i32, [4 x i8] }>

@_ZL3rsp = internal constant %class.Register { i32 4 }, align 4
@_ZL3rax = internal constant %class.Register zeroinitializer, align 4
@_ZL3rbp = internal constant %class.Register { i32 5 }, align 4
@_ZN9VMRegImpl15stack_slot_sizeE = external constant i32, align 4
@_ZL5noreg = internal constant %class.Register { i32 -1 }, align 4
@_ZL6xnoreg = internal constant %class.XMMRegister { i32 -1 }, align 4
@_ZTV10Relocation = external unnamed_addr constant { [11 x ptr] }, align 8
@all_VMRegs = external hidden global [610 x %class.VMRegImpl], align 16

; Function Attrs: mustprogress nounwind uwtable
define linkonce_odr hidden void @_ZN10RelocationC2EN9relocInfo9relocTypeE(ptr noundef nonnull align 8 dereferenceable(20) %0, i32 noundef %1) unnamed_addr #1 comdat align 2 {
  %3 = alloca ptr, align 8
  %4 = alloca i32, align 4
  store ptr %0, ptr %3, align 8
  store i32 %1, ptr %4, align 4
  %5 = load ptr, ptr %3, align 8
  store ptr getelementptr inbounds inrange(-16, 72) ({ [11 x ptr] }, ptr @_ZTV10Relocation, i32 0, i32 0, i32 2), ptr %5, align 8
  %6 = getelementptr inbounds %class.Relocation, ptr %5, i32 0, i32 1
  store ptr null, ptr %6, align 8
  %7 = getelementptr inbounds %class.Relocation, ptr %5, i32 0, i32 2
  %8 = load i32, ptr %4, align 4
  store i32 %8, ptr %7, align 8
  ret void
}

; Function Attrs: mustprogress nounwind uwtable
define linkonce_odr hidden void @_ZN10RelocationC2Ev(ptr noundef nonnull align 8 dereferenceable(20) %0) unnamed_addr #1 comdat align 2 {
  %2 = alloca ptr, align 8
  store ptr %0, ptr %2, align 8
  %3 = load ptr, ptr %2, align 8
  call void @_ZN10RelocationC2EN9relocInfo9relocTypeE(ptr noundef nonnull align 8 dereferenceable(20) %3, i32 noundef 0)
  ret void
}

; Function Attrs: mustprogress nounwind uwtable
define linkonce_odr hidden void @_ZN16RelocationHolder18emplace_relocationI10RelocationJEEEvDpRKT0_(ptr noundef nonnull align 8 dereferenceable(40) %0) #1 comdat align 2 {
  %2 = alloca ptr, align 8
  %3 = alloca ptr, align 8
  store ptr %0, ptr %2, align 8
  %4 = load ptr, ptr %2, align 8
  %5 = getelementptr inbounds %class.RelocationHolder, ptr %4, i32 0, i32 0
  %6 = getelementptr inbounds [40 x i8], ptr %5, i64 0, i64 0
  call void @_ZN10RelocationC2Ev(ptr noundef nonnull align 8 dereferenceable(20) %6)
  store ptr %6, ptr %3, align 8
  ret void
}

; Function Attrs: mustprogress nounwind uwtable
define linkonce_odr hidden void @_ZN8RegisterC2Eib(ptr noundef nonnull align 4 dereferenceable(4) %0, i32 noundef %1, i1 noundef zeroext %2) unnamed_addr #1 comdat align 2 {
  %4 = alloca ptr, align 8
  %5 = alloca i32, align 4
  %6 = alloca i8, align 1
  store ptr %0, ptr %4, align 8
  store i32 %1, ptr %5, align 4
  %7 = zext i1 %2 to i8
  store i8 %7, ptr %6, align 1
  %8 = load ptr, ptr %4, align 8
  %9 = getelementptr inbounds %class.Register, ptr %8, i32 0, i32 0
  %10 = load i32, ptr %5, align 4
  store i32 %10, ptr %9, align 4
  ret void
}

; Function Attrs: mustprogress nounwind uwtable
define linkonce_odr hidden void @_ZN16RelocationHolderC2I10RelocationJEEENS_9ConstructIT_EEDpRKT0_(ptr noundef nonnull align 8 dereferenceable(40) %0) unnamed_addr #1 comdat align 2 {
  %2 = alloca ptr, align 8
  store ptr %0, ptr %2, align 8
  %3 = load ptr, ptr %2, align 8
  call void @_ZN16RelocationHolder18emplace_relocationI10RelocationJEEEvDpRKT0_(ptr noundef nonnull align 8 dereferenceable(40) %3)
  ret void
}

; Function Attrs: mustprogress nounwind uwtable
define linkonce_odr hidden noundef i32 @_Z12checked_castIilET_T0_(i64 noundef %0) #1 comdat {
  %2 = alloca i64, align 8
  %3 = alloca i32, align 4
  store i64 %0, ptr %2, align 8
  %4 = load i64, ptr %2, align 8
  %5 = trunc i64 %4 to i32
  store i32 %5, ptr %3, align 4
  %6 = load i32, ptr %3, align 4
  ret i32 %6
}

; Function Attrs: mustprogress nounwind uwtable
define linkonce_odr hidden noundef ptr @_ZN9VMRegImpl5firstEv() #1 comdat align 2 {
  ret ptr getelementptr inbounds (%class.VMRegImpl, ptr @all_VMRegs, i64 1)
}

; Function Attrs: mustprogress nounwind uwtable
define linkonce_odr hidden i32 @_Z11as_Registeri(i32 noundef %0) #1 comdat {
  %2 = alloca %class.Register, align 4
  %3 = alloca i32, align 4
  store i32 %0, ptr %3, align 4
  %4 = load i32, ptr %3, align 4
  %5 = icmp sle i32 0, %4
  br i1 %5, label %6, label %11

6:                                                ; preds = %1
  %7 = load i32, ptr %3, align 4
  %8 = icmp slt i32 %7, 32
  br i1 %8, label %9, label %11

9:                                                ; preds = %6
  %10 = load i32, ptr %3, align 4
  call void @_ZN8RegisterC2Eib(ptr noundef nonnull align 4 dereferenceable(4) %2, i32 noundef %10, i1 noundef zeroext false)
  br label %12

11:                                               ; preds = %6, %1
  call void @llvm.memcpy.p0.p0.i64(ptr align 4 %2, ptr align 4 @_ZL5noreg, i64 4, i1 false)
  br label %12

12:                                               ; preds = %11, %9
  %13 = getelementptr inbounds %class.Register, ptr %2, i32 0, i32 0
  %14 = load i32, ptr %13, align 4
  ret i32 %14
}

; Function Attrs: mustprogress nounwind uwtable
define linkonce_odr hidden noundef i32 @_ZNK9VMRegImpl5valueEv(ptr noundef nonnull align 1 dereferenceable(1) %0) #1 comdat align 2 {
  %2 = alloca ptr, align 8
  store ptr %0, ptr %2, align 8
  %3 = load ptr, ptr %2, align 8
  %4 = call noundef ptr @_ZN9VMRegImpl5firstEv()
  %5 = ptrtoint ptr %3 to i64
  %6 = ptrtoint ptr %4 to i64
  %7 = sub i64 %5, %6
  %8 = call noundef i32 @_Z12checked_castIilET_T0_(i64 noundef %7)
  ret i32 %8
}

; Function Attrs: mustprogress nounwind uwtable
define linkonce_odr hidden void @_ZN16RelocationHolderC2Ev(ptr noundef nonnull align 8 dereferenceable(40) %0) unnamed_addr #1 comdat align 2 {
  %2 = alloca ptr, align 8
  store ptr %0, ptr %2, align 8
  %3 = load ptr, ptr %2, align 8
  call void @_ZN16RelocationHolderC2I10RelocationJEEENS_9ConstructIT_EEDpRKT0_(ptr noundef nonnull align 8 dereferenceable(40) %3)
  ret void
}

; Function Attrs: mustprogress nounwind uwtable
define linkonce_odr hidden noundef i32 @_ZNK9VMRegImpl9reg2stackEv(ptr noundef nonnull align 1 dereferenceable(1) %0) #1 comdat align 2 {
  %2 = alloca ptr, align 8
  store ptr %0, ptr %2, align 8
  %3 = load ptr, ptr %2, align 8
  %4 = call noundef ptr @_ZN9VMRegImpl7stack_0Ev()
  %5 = ptrtoint ptr %3 to i64
  %6 = ptrtoint ptr %4 to i64
  %7 = sub i64 %5, %6
  %8 = call noundef i32 @_Z12checked_castIilET_T0_(i64 noundef %7)
  ret i32 %8
}

; Function Attrs: mustprogress nounwind uwtable
define linkonce_odr hidden noundef ptr @_ZN9VMRegImpl7stack_0Ev() #1 comdat align 2 {
  %1 = call noundef ptr @_ZN9VMRegImpl5firstEv()
  %2 = getelementptr inbounds %class.VMRegImpl, ptr %1, i64 616
  ret ptr %2
}

; Function Attrs: mustprogress nounwind uwtable
define linkonce_odr hidden i32 @_ZN9VMRegImpl11as_RegisterEv(ptr noundef nonnull align 1 dereferenceable(1) %0) #1 comdat align 2 {
  %2 = alloca %class.Register, align 4
  %3 = alloca ptr, align 8
  store ptr %0, ptr %3, align 8
  %4 = load ptr, ptr %3, align 8
  %5 = call noundef i32 @_ZNK9VMRegImpl5valueEv(ptr noundef nonnull align 1 dereferenceable(1) %4)
  %6 = ashr i32 %5, 1
  %7 = call i32 @_Z11as_Registeri(i32 noundef %6)
  %8 = getelementptr inbounds %class.Register, ptr %2, i32 0, i32 0
  store i32 %7, ptr %8, align 4
  %9 = getelementptr inbounds %class.Register, ptr %2, i32 0, i32 0
  %10 = load i32, ptr %9, align 4
  ret i32 %10
}

; Function Attrs: mustprogress nounwind uwtable
define internal noundef i32 @_ZL14reg2offset_outP9VMRegImpl(ptr noundef %0) #1 {
  %2 = alloca ptr, align 8
  store ptr %0, ptr %2, align 8
  %3 = load ptr, ptr %2, align 8
  %4 = call noundef i32 @_ZNK9VMRegImpl9reg2stackEv(ptr noundef nonnull align 1 dereferenceable(1) %3)
  %5 = call noundef i32 @_ZN13SharedRuntime24out_preserve_stack_slotsEv()
  %6 = add i32 %4, %5
  %7 = load i32, ptr @_ZN9VMRegImpl15stack_slot_sizeE, align 4
  %8 = mul i32 %6, %7
  ret i32 %8
}

; Function Attrs: mustprogress nounwind uwtable
define linkonce_odr hidden void @_ZN7AddressC2E8Registeri(ptr noundef nonnull align 8 dereferenceable(64) %0, i32 %1, i32 noundef %2) unnamed_addr #1 comdat align 2 {
  %4 = alloca %class.Register, align 4
  %5 = alloca ptr, align 8
  %6 = alloca i32, align 4
  %7 = getelementptr inbounds %class.Register, ptr %4, i32 0, i32 0
  store i32 %1, ptr %7, align 4
  store ptr %0, ptr %5, align 8
  store i32 %2, ptr %6, align 4
  %8 = load ptr, ptr %5, align 8
  %9 = getelementptr inbounds %class.Address, ptr %8, i32 0, i32 0
  call void @llvm.memcpy.p0.p0.i64(ptr align 8 %9, ptr align 4 %4, i64 4, i1 false)
  %10 = getelementptr inbounds %class.Address, ptr %8, i32 0, i32 1
  call void @llvm.memcpy.p0.p0.i64(ptr align 4 %10, ptr align 4 @_ZL5noreg, i64 4, i1 false)
  %11 = getelementptr inbounds %class.Address, ptr %8, i32 0, i32 2
  call void @llvm.memcpy.p0.p0.i64(ptr align 8 %11, ptr align 4 @_ZL6xnoreg, i64 4, i1 false)
  %12 = getelementptr inbounds %class.Address, ptr %8, i32 0, i32 3
  store i32 -1, ptr %12, align 4
  %13 = getelementptr inbounds %class.Address, ptr %8, i32 0, i32 4
  %14 = load i32, ptr %6, align 4
  store i32 %14, ptr %13, align 8
  %15 = getelementptr inbounds %class.Address, ptr %8, i32 0, i32 5
  store i8 0, ptr %15, align 4
  %16 = getelementptr inbounds %class.Address, ptr %8, i32 0, i32 7
  call void @_ZN16RelocationHolderC2Ev(ptr noundef nonnull align 8 dereferenceable(40) %16)
  ret void
}

; Function Attrs: mustprogress nounwind uwtable
define internal noundef i32 @_ZL13reg2offset_inP9VMRegImpl(ptr noundef %0) #1 {
  %2 = alloca ptr, align 8
  store ptr %0, ptr %2, align 8
  %3 = load ptr, ptr %2, align 8
  %4 = call noundef i32 @_ZNK9VMRegImpl9reg2stackEv(ptr noundef nonnull align 1 dereferenceable(1) %3)
  %5 = add nsw i32 %4, 4
  %6 = load i32, ptr @_ZN9VMRegImpl15stack_slot_sizeE, align 4
  %7 = mul nsw i32 %5, %6
  ret i32 %7
}

; Function Attrs: mustprogress nounwind uwtable
define linkonce_odr hidden noundef zeroext i1 @_ZNK9VMRegImpl8is_stackEv(ptr noundef nonnull align 1 dereferenceable(1) %0) #1 comdat align 2 {
  %2 = alloca ptr, align 8
  store ptr %0, ptr %2, align 8
  %3 = load ptr, ptr %2, align 8
  %4 = call noundef ptr @_ZN9VMRegImpl7stack_0Ev()
  %5 = icmp uge ptr %3, %4
  ret i1 %5
}

; Function Attrs: mustprogress nounwind uwtable
define linkonce_odr hidden noundef ptr @_ZNK9VMRegPair5firstEv(ptr noundef nonnull align 8 dereferenceable(16) %0) #1 comdat align 2 {
  %2 = alloca ptr, align 8
  store ptr %0, ptr %2, align 8
  %3 = load ptr, ptr %2, align 8
  %4 = getelementptr inbounds %class.VMRegPair, ptr %3, i32 0, i32 1
  %5 = load ptr, ptr %4, align 8
  ret ptr %5
}

; Function Attrs: mustprogress nounwind uwtable
define hidden void @_ZN14MacroAssembler8move_ptrE9VMRegPairS0_(ptr noundef nonnull align 8 dereferenceable(40) %0, ptr %1, ptr %2, ptr %3, ptr %4) #1 align 2 {
  %6 = alloca %class.VMRegPair, align 8
  %7 = alloca %class.VMRegPair, align 8
  %8 = alloca ptr, align 8
  %9 = alloca %class.Register, align 4
  %10 = alloca %class.Address, align 8
  %11 = alloca %class.Register, align 4
  %12 = alloca %class.Address, align 8
  %13 = alloca %class.Register, align 4
  %14 = alloca %class.Register, align 4
  %15 = alloca %class.Register, align 4
  %16 = alloca %class.Address, align 8
  %17 = alloca %class.Register, align 4
  %18 = alloca %class.Address, align 8
  %19 = alloca %class.Register, align 4
  %20 = alloca %class.Register, align 4
  %21 = alloca %class.Register, align 4
  %22 = alloca %class.Register, align 4
  %23 = getelementptr inbounds { ptr, ptr }, ptr %6, i32 0, i32 0
  store ptr %1, ptr %23, align 8
  %24 = getelementptr inbounds { ptr, ptr }, ptr %6, i32 0, i32 1
  store ptr %2, ptr %24, align 8
  %25 = getelementptr inbounds { ptr, ptr }, ptr %7, i32 0, i32 0
  store ptr %3, ptr %25, align 8
  %26 = getelementptr inbounds { ptr, ptr }, ptr %7, i32 0, i32 1
  store ptr %4, ptr %26, align 8
  store ptr %0, ptr %8, align 8
  %27 = load ptr, ptr %8, align 8
  %28 = call noundef ptr @_ZNK9VMRegPair5firstEv(ptr noundef nonnull align 8 dereferenceable(16) %6)
  %29 = call noundef zeroext i1 @_ZNK9VMRegImpl8is_stackEv(ptr noundef nonnull align 1 dereferenceable(1) %28)
  br i1 %29, label %30, label %57

30:                                               ; preds = %5
  %31 = call noundef ptr @_ZNK9VMRegPair5firstEv(ptr noundef nonnull align 8 dereferenceable(16) %7)
  %32 = call noundef zeroext i1 @_ZNK9VMRegImpl8is_stackEv(ptr noundef nonnull align 1 dereferenceable(1) %31)
  br i1 %32, label %33, label %46

33:                                               ; preds = %30
  call void @llvm.memcpy.p0.p0.i64(ptr align 4 %9, ptr align 4 @_ZL3rax, i64 4, i1 false)
  call void @llvm.memcpy.p0.p0.i64(ptr align 4 %11, ptr align 4 @_ZL3rbp, i64 4, i1 false)
  %34 = call noundef ptr @_ZNK9VMRegPair5firstEv(ptr noundef nonnull align 8 dereferenceable(16) %6)
  %35 = call noundef i32 @_ZL13reg2offset_inP9VMRegImpl(ptr noundef %34)
  %36 = getelementptr inbounds %class.Register, ptr %11, i32 0, i32 0
  %37 = load i32, ptr %36, align 4
  call void @_ZN7AddressC2E8Registeri(ptr noundef nonnull align 8 dereferenceable(64) %10, i32 %37, i32 noundef %35)
  %38 = getelementptr inbounds %class.Register, ptr %9, i32 0, i32 0
  %39 = load i32, ptr %38, align 4
  call void @_ZN9Assembler4movqE8Register7Address(ptr noundef nonnull align 8 dereferenceable(40) %27, i32 %39, ptr noundef %10)
  call void @llvm.memcpy.p0.p0.i64(ptr align 4 %13, ptr align 4 @_ZL3rsp, i64 4, i1 false)
  %40 = call noundef ptr @_ZNK9VMRegPair5firstEv(ptr noundef nonnull align 8 dereferenceable(16) %7)
  %41 = call noundef i32 @_ZL14reg2offset_outP9VMRegImpl(ptr noundef %40)
  %42 = getelementptr inbounds %class.Register, ptr %13, i32 0, i32 0
  %43 = load i32, ptr %42, align 4
  call void @_ZN7AddressC2E8Registeri(ptr noundef nonnull align 8 dereferenceable(64) %12, i32 %43, i32 noundef %41)
  call void @llvm.memcpy.p0.p0.i64(ptr align 4 %14, ptr align 4 @_ZL3rax, i64 4, i1 false)
  %44 = getelementptr inbounds %class.Register, ptr %14, i32 0, i32 0
  %45 = load i32, ptr %44, align 4
  call void @_ZN9Assembler4movqE7Address8Register(ptr noundef nonnull align 8 dereferenceable(40) %27, ptr noundef %12, i32 %45)
  br label %56

46:                                               ; preds = %30
  %47 = call noundef ptr @_ZNK9VMRegPair5firstEv(ptr noundef nonnull align 8 dereferenceable(16) %7)
  %48 = call i32 @_ZN9VMRegImpl11as_RegisterEv(ptr noundef nonnull align 1 dereferenceable(1) %47)
  %49 = getelementptr inbounds %class.Register, ptr %15, i32 0, i32 0
  store i32 %48, ptr %49, align 4
  call void @llvm.memcpy.p0.p0.i64(ptr align 4 %17, ptr align 4 @_ZL3rbp, i64 4, i1 false)
  %50 = call noundef ptr @_ZNK9VMRegPair5firstEv(ptr noundef nonnull align 8 dereferenceable(16) %6)
  %51 = call noundef i32 @_ZL13reg2offset_inP9VMRegImpl(ptr noundef %50)
  %52 = getelementptr inbounds %class.Register, ptr %17, i32 0, i32 0
  %53 = load i32, ptr %52, align 4
  call void @_ZN7AddressC2E8Registeri(ptr noundef nonnull align 8 dereferenceable(64) %16, i32 %53, i32 noundef %51)
  %54 = getelementptr inbounds %class.Register, ptr %15, i32 0, i32 0
  %55 = load i32, ptr %54, align 4
  call void @_ZN9Assembler4movqE8Register7Address(ptr noundef nonnull align 8 dereferenceable(40) %27, i32 %55, ptr noundef %16)
  br label %56

56:                                               ; preds = %46, %33
  br label %87

57:                                               ; preds = %5
  %58 = call noundef ptr @_ZNK9VMRegPair5firstEv(ptr noundef nonnull align 8 dereferenceable(16) %7)
  %59 = call noundef zeroext i1 @_ZNK9VMRegImpl8is_stackEv(ptr noundef nonnull align 1 dereferenceable(1) %58)
  br i1 %59, label %60, label %70

60:                                               ; preds = %57
  call void @llvm.memcpy.p0.p0.i64(ptr align 4 %19, ptr align 4 @_ZL3rsp, i64 4, i1 false)
  %61 = call noundef ptr @_ZNK9VMRegPair5firstEv(ptr noundef nonnull align 8 dereferenceable(16) %7)
  %62 = call noundef i32 @_ZL14reg2offset_outP9VMRegImpl(ptr noundef %61)
  %63 = getelementptr inbounds %class.Register, ptr %19, i32 0, i32 0
  %64 = load i32, ptr %63, align 4
  call void @_ZN7AddressC2E8Registeri(ptr noundef nonnull align 8 dereferenceable(64) %18, i32 %64, i32 noundef %62)
  %65 = call noundef ptr @_ZNK9VMRegPair5firstEv(ptr noundef nonnull align 8 dereferenceable(16) %6)
  %66 = call i32 @_ZN9VMRegImpl11as_RegisterEv(ptr noundef nonnull align 1 dereferenceable(1) %65)
  %67 = getelementptr inbounds %class.Register, ptr %20, i32 0, i32 0
  store i32 %66, ptr %67, align 4
  %68 = getelementptr inbounds %class.Register, ptr %20, i32 0, i32 0
  %69 = load i32, ptr %68, align 4
  call void @_ZN9Assembler4movqE7Address8Register(ptr noundef nonnull align 8 dereferenceable(40) %27, ptr noundef %18, i32 %69)
  br label %86

70:                                               ; preds = %57
  %71 = call noundef ptr @_ZNK9VMRegPair5firstEv(ptr noundef nonnull align 8 dereferenceable(16) %7)
  %72 = call noundef ptr @_ZNK9VMRegPair5firstEv(ptr noundef nonnull align 8 dereferenceable(16) %6)
  %73 = icmp ne ptr %71, %72
  br i1 %73, label %74, label %85

74:                                               ; preds = %70
  %75 = call noundef ptr @_ZNK9VMRegPair5firstEv(ptr noundef nonnull align 8 dereferenceable(16) %7)
  %76 = call i32 @_ZN9VMRegImpl11as_RegisterEv(ptr noundef nonnull align 1 dereferenceable(1) %75)
  %77 = getelementptr inbounds %class.Register, ptr %21, i32 0, i32 0
  store i32 %76, ptr %77, align 4
  %78 = call noundef ptr @_ZNK9VMRegPair5firstEv(ptr noundef nonnull align 8 dereferenceable(16) %6)
  %79 = call i32 @_ZN9VMRegImpl11as_RegisterEv(ptr noundef nonnull align 1 dereferenceable(1) %78)
  %80 = getelementptr inbounds %class.Register, ptr %22, i32 0, i32 0
  store i32 %79, ptr %80, align 4
  %81 = getelementptr inbounds %class.Register, ptr %21, i32 0, i32 0
  %82 = load i32, ptr %81, align 4
  %83 = getelementptr inbounds %class.Register, ptr %22, i32 0, i32 0
  %84 = load i32, ptr %83, align 4
  call void @_ZN9Assembler4movqE8RegisterS0_(ptr noundef nonnull align 8 dereferenceable(40) %27, i32 %82, i32 %84)
  br label %85

85:                                               ; preds = %74, %70
  br label %86

86:                                               ; preds = %85, %60
  br label %87

87:                                               ; preds = %86, %56
  ret void
}