; Function Attrs: mustprogress nounwind uwtable
define hidden void @_ZN14MacroAssembler8move_ptrE9VMRegPairS0_(ptr noundef nonnull align 8 dereferenceable(40) %0, ptr nocapture readnone %1, ptr %2, ptr nocapture readnone %3, ptr %4) local_unnamed_addr #0 align 2 {
  %6 = alloca %class.Address, align 16
  %7 = alloca %class.Address, align 16
  %8 = alloca %class.Address, align 16
  %9 = alloca %class.Address, align 16
  %.not29 = icmp ult ptr %2, getelementptr inbounds (i8, ptr @all_VMRegs, i64 617)
  %.not30 = icmp ult ptr %4, getelementptr inbounds (i8, ptr @all_VMRegs, i64 617)
  br i1 %.not29, label %48, label %10

10:                                               ; preds = %5
  br i1 %.not30, label %33, label %11

11:                                               ; preds = %10
  %12 = ptrtoint ptr %2 to i64
  %13 = trunc i64 %12 to i32
  %14 = add i32 %13, add (i32 sub (i32 0, i32 ptrtoint (ptr getelementptr inbounds (i8, ptr @all_VMRegs, i64 617) to i32)), i32 4)
  %15 = load i32, ptr @_ZN9VMRegImpl15stack_slot_sizeE, align 4
  %16 = mul nsw i32 %15, %14
  store <4 x i32> <i32 5, i32 -1, i32 -1, i32 -1>, ptr %6, align 16
  %17 = getelementptr inbounds i8, ptr %6, i64 16
  store i32 %16, ptr %17, align 16
  %18 = getelementptr inbounds i8, ptr %6, i64 20
  store i8 0, ptr %18, align 4
  %19 = getelementptr inbounds i8, ptr %6, i64 24
  store ptr getelementptr inbounds inrange(-16, 72) (i8, ptr @_ZTV10Relocation, i64 16), ptr %19, align 8
  %20 = getelementptr inbounds i8, ptr %6, i64 32
  store ptr null, ptr %20, align 16
  %21 = getelementptr inbounds i8, ptr %6, i64 40
  store i32 0, ptr %21, align 8
  call void @_ZN9Assembler4movqE8Register7Address(ptr noundef nonnull align 8 dereferenceable(40) %0, i32 0, ptr noundef nonnull %6) #18
  %22 = ptrtoint ptr %4 to i64
  %23 = trunc i64 %22 to i32
  %24 = add i32 %23, sub (i32 0, i32 ptrtoint (ptr getelementptr inbounds (i8, ptr @all_VMRegs, i64 617) to i32))
  %25 = call noundef i32 @_ZN13SharedRuntime24out_preserve_stack_slotsEv() #18
  %26 = add i32 %24, %25
  %27 = mul i32 %26, %15
  store <4 x i32> <i32 4, i32 -1, i32 -1, i32 -1>, ptr %7, align 16
  %28 = getelementptr inbounds i8, ptr %7, i64 16
  store i32 %27, ptr %28, align 16
  %29 = getelementptr inbounds i8, ptr %7, i64 20
  store i8 0, ptr %29, align 4
  %30 = getelementptr inbounds i8, ptr %7, i64 24
  store ptr getelementptr inbounds inrange(-16, 72) (i8, ptr @_ZTV10Relocation, i64 16), ptr %30, align 8
  %31 = getelementptr inbounds i8, ptr %7, i64 32
  store ptr null, ptr %31, align 16
  %32 = getelementptr inbounds i8, ptr %7, i64 40
  store i32 0, ptr %32, align 8
  call void @_ZN9Assembler4movqE7Address8Register(ptr noundef nonnull align 8 dereferenceable(40) %0, ptr noundef nonnull %7, i32 0) #18
  br label %76

33:                                               ; preds = %10
  %34 = ptrtoint ptr %4 to i64
  %35 = trunc i64 %34 to i32
  %36 = sub i32 %35, ptrtoint (ptr getelementptr inbounds (i8, ptr @all_VMRegs, i64 1) to i32)
  %37 = ashr i32 %36, 1
  %or.cond.i.i = icmp ult i32 %37, 32
  %spec.select.i.i = select i1 %or.cond.i.i, i32 %37, i32 -1
  %38 = ptrtoint ptr %2 to i64
  %39 = trunc i64 %38 to i32
  %40 = add i32 %39, add (i32 sub (i32 0, i32 ptrtoint (ptr getelementptr inbounds (i8, ptr @all_VMRegs, i64 617) to i32)), i32 4)
  %41 = load i32, ptr @_ZN9VMRegImpl15stack_slot_sizeE, align 4
  %42 = mul nsw i32 %41, %40
  store <4 x i32> <i32 5, i32 -1, i32 -1, i32 -1>, ptr %8, align 16
  %43 = getelementptr inbounds i8, ptr %8, i64 16
  store i32 %42, ptr %43, align 16
  %44 = getelementptr inbounds i8, ptr %8, i64 20
  store i8 0, ptr %44, align 4
  %45 = getelementptr inbounds i8, ptr %8, i64 24
  store ptr getelementptr inbounds inrange(-16, 72) (i8, ptr @_ZTV10Relocation, i64 16), ptr %45, align 8
  %46 = getelementptr inbounds i8, ptr %8, i64 32
  store ptr null, ptr %46, align 16
  %47 = getelementptr inbounds i8, ptr %8, i64 40
  store i32 0, ptr %47, align 8
  call void @_ZN9Assembler4movqE8Register7Address(ptr noundef nonnull align 8 dereferenceable(40) %0, i32 %spec.select.i.i, ptr noundef nonnull %8) #18
  br label %76

48:                                               ; preds = %5
  br i1 %.not30, label %66, label %49

49:                                               ; preds = %48
  %50 = ptrtoint ptr %4 to i64
  %51 = trunc i64 %50 to i32
  %52 = add i32 %51, sub (i32 0, i32 ptrtoint (ptr getelementptr inbounds (i8, ptr @all_VMRegs, i64 617) to i32))
  %53 = tail call noundef i32 @_ZN13SharedRuntime24out_preserve_stack_slotsEv() #18
  %54 = add i32 %52, %53
  %55 = load i32, ptr @_ZN9VMRegImpl15stack_slot_sizeE, align 4
  %56 = mul i32 %54, %55
  store <4 x i32> <i32 4, i32 -1, i32 -1, i32 -1>, ptr %9, align 16
  %57 = getelementptr inbounds i8, ptr %9, i64 16
  store i32 %56, ptr %57, align 16
  %58 = getelementptr inbounds i8, ptr %9, i64 20
  store i8 0, ptr %58, align 4
  %59 = getelementptr inbounds i8, ptr %9, i64 24
  store ptr getelementptr inbounds inrange(-16, 72) (i8, ptr @_ZTV10Relocation, i64 16), ptr %59, align 8
  %60 = getelementptr inbounds i8, ptr %9, i64 32
  store ptr null, ptr %60, align 16
  %61 = getelementptr inbounds i8, ptr %9, i64 40
  store i32 0, ptr %61, align 8
  %62 = ptrtoint ptr %2 to i64
  %63 = trunc i64 %62 to i32
  %64 = sub i32 %63, ptrtoint (ptr getelementptr inbounds (i8, ptr @all_VMRegs, i64 1) to i32)
  %65 = ashr i32 %64, 1
  %or.cond.i.i10 = icmp ult i32 %65, 32
  %spec.select.i.i11 = select i1 %or.cond.i.i10, i32 %65, i32 -1
  call void @_ZN9Assembler4movqE7Address8Register(ptr noundef nonnull align 8 dereferenceable(40) %0, ptr noundef nonnull %9, i32 %spec.select.i.i11) #18
  br label %76

66:                                               ; preds = %48
  %.not = icmp eq ptr %4, %2
  br i1 %.not, label %76, label %67

67:                                               ; preds = %66
  %68 = ptrtoint ptr %4 to i64
  %69 = trunc i64 %68 to i32
  %70 = sub i32 %69, ptrtoint (ptr getelementptr inbounds (i8, ptr @all_VMRegs, i64 1) to i32)
  %71 = ashr i32 %70, 1
  %or.cond.i.i12 = icmp ult i32 %71, 32
  %spec.select.i.i13 = select i1 %or.cond.i.i12, i32 %71, i32 -1
  %72 = ptrtoint ptr %2 to i64
  %73 = trunc i64 %72 to i32
  %74 = sub i32 %73, ptrtoint (ptr getelementptr inbounds (i8, ptr @all_VMRegs, i64 1) to i32)
  %75 = ashr i32 %74, 1
  %or.cond.i.i14 = icmp ult i32 %75, 32
  %spec.select.i.i15 = select i1 %or.cond.i.i14, i32 %75, i32 -1
  tail call void @_ZN9Assembler4movqE8RegisterS0_(ptr noundef nonnull align 8 dereferenceable(40) %0, i32 %spec.select.i.i13, i32 %spec.select.i.i15) #18
  br label %76

76:                                               ; preds = %49, %67, %66, %11, %33
  ret void
}